; Function Attrs: mustprogress nofree norecurse nosync nounwind willreturn memory(argmem: read) uwtable
define hidden i32 @av1_get_sb_rows_in_tile(ptr nocapture noundef readonly %0, ptr nocapture noundef readonly byval(%struct.TileInfo) align 8 %1) local_unnamed_addr #2 {
  %3 = getelementptr inbounds nuw i8, ptr %1, i64 4
  %4 = load i32, ptr %3, align 4
  %5 = load i32, ptr %1, align 8
  %6 = sub i32 %4, %5
  %7 = getelementptr inbounds i8, ptr %0, i64 25220
  %8 = load i32, ptr %7, align 4
  %notmask = shl nsw i32 -1, %8
  %9 = xor i32 %notmask, -1
  %10 = add nsw i32 %6, %9
  %11 = and i32 %10, %notmask
  %12 = ashr i32 %11, %8
  ret i32 %12
}